target datalayout = "e-m:e-p270:32:32-p271:32:32-p272:64:64-i64:64-i128:128-f80:128-n8:16:32:64-S128"
target triple = "x86_64-pc-linux-gnu"

%struct.__mm_storel_epi64_struct = type { i64 }
%struct.__loadu_si128 = type { <2 x i64> }
%struct.__storeu_si128 = type { <2 x i64> }

; Function Attrs: alwaysinline nounwind uwtable
define internal <2 x i64> @_mm_set_epi32(i32 noundef %0, i32 noundef %1, i32 noundef %2, i32 noundef %3) #3 {
  %5 = alloca i32, align 4
  %6 = alloca i32, align 4
  %7 = alloca i32, align 4
  %8 = alloca i32, align 4
  %9 = alloca <4 x i32>, align 16
  store i32 %0, ptr %5, align 4, !tbaa !9
  store i32 %1, ptr %6, align 4, !tbaa !9
  store i32 %2, ptr %7, align 4, !tbaa !9
  store i32 %3, ptr %8, align 4, !tbaa !9
  %10 = load i32, ptr %8, align 4, !tbaa !9
  %11 = insertelement <4 x i32> poison, i32 %10, i32 0
  %12 = load i32, ptr %7, align 4, !tbaa !9
  %13 = insertelement <4 x i32> %11, i32 %12, i32 1
  %14 = load i32, ptr %6, align 4, !tbaa !9
  %15 = insertelement <4 x i32> %13, i32 %14, i32 2
  %16 = load i32, ptr %5, align 4, !tbaa !9
  %17 = insertelement <4 x i32> %15, i32 %16, i32 3
  store <4 x i32> %17, ptr %9, align 16, !tbaa !11
  %18 = load <4 x i32>, ptr %9, align 16, !tbaa !11
  %19 = bitcast <4 x i32> %18 to <2 x i64>
  ret <2 x i64> %19
}

; Function Attrs: alwaysinline nounwind uwtable
define internal void @_mm_storel_epi64(ptr noundef %0, <2 x i64> noundef %1) #3 {
  %3 = alloca ptr, align 8
  %4 = alloca <2 x i64>, align 16
  store ptr %0, ptr %3, align 8, !tbaa !3
  store <2 x i64> %1, ptr %4, align 16, !tbaa !11
  %5 = load <2 x i64>, ptr %4, align 16, !tbaa !11
  %6 = extractelement <2 x i64> %5, i32 0
  %7 = load ptr, ptr %3, align 8, !tbaa !3
  %8 = getelementptr inbounds nuw %struct.__mm_storel_epi64_struct, ptr %7, i32 0, i32 0
  store i64 %6, ptr %8, align 1, !tbaa !11
  ret void
}

; Function Attrs: alwaysinline nounwind uwtable
define internal void @_mm_storeu_si128(ptr noundef %0, <2 x i64> noundef %1) #3 {
  %3 = alloca ptr, align 8
  %4 = alloca <2 x i64>, align 16
  store ptr %0, ptr %3, align 8, !tbaa !3
  store <2 x i64> %1, ptr %4, align 16, !tbaa !11
  %5 = load <2 x i64>, ptr %4, align 16, !tbaa !11
  %6 = load ptr, ptr %3, align 8, !tbaa !3
  %7 = getelementptr inbounds nuw %struct.__storeu_si128, ptr %6, i32 0, i32 0
  store <2 x i64> %5, ptr %7, align 1, !tbaa !11
  ret void
}

; Function Attrs: alwaysinline nounwind uwtable
define internal <2 x i64> @_mm_packus_epi16(<2 x i64> noundef %0, <2 x i64> noundef %1) #3 {
  %3 = alloca <2 x i64>, align 16
  %4 = alloca <2 x i64>, align 16
  store <2 x i64> %0, ptr %3, align 16, !tbaa !11
  store <2 x i64> %1, ptr %4, align 16, !tbaa !11
  %5 = load <2 x i64>, ptr %3, align 16, !tbaa !11
  %6 = bitcast <2 x i64> %5 to <8 x i16>
  %7 = load <2 x i64>, ptr %4, align 16, !tbaa !11
  %8 = bitcast <2 x i64> %7 to <8 x i16>
  %9 = call <16 x i8> @llvm.x86.sse2.packuswb.128(<8 x i16> %6, <8 x i16> %8)
  %10 = bitcast <16 x i8> %9 to <2 x i64>
  ret <2 x i64> %10
}

; Function Attrs: alwaysinline nounwind uwtable
define internal <2 x i64> @_mm_packs_epi32(<2 x i64> noundef %0, <2 x i64> noundef %1) #3 {
  %3 = alloca <2 x i64>, align 16
  %4 = alloca <2 x i64>, align 16
  store <2 x i64> %0, ptr %3, align 16, !tbaa !11
  store <2 x i64> %1, ptr %4, align 16, !tbaa !11
  %5 = load <2 x i64>, ptr %3, align 16, !tbaa !11
  %6 = bitcast <2 x i64> %5 to <4 x i32>
  %7 = load <2 x i64>, ptr %4, align 16, !tbaa !11
  %8 = bitcast <2 x i64> %7 to <4 x i32>
  %9 = call <8 x i16> @llvm.x86.sse2.packssdw.128(<4 x i32> %6, <4 x i32> %8)
  %10 = bitcast <8 x i16> %9 to <2 x i64>
  ret <2 x i64> %10
}

; Function Attrs: alwaysinline nounwind uwtable
define internal <2 x i64> @_mm_and_si128(<2 x i64> noundef %0, <2 x i64> noundef %1) #3 {
  %3 = alloca <2 x i64>, align 16
  %4 = alloca <2 x i64>, align 16
  store <2 x i64> %0, ptr %3, align 16, !tbaa !11
  store <2 x i64> %1, ptr %4, align 16, !tbaa !11
  %5 = load <2 x i64>, ptr %3, align 16, !tbaa !11
  %6 = load <2 x i64>, ptr %4, align 16, !tbaa !11
  %7 = and <2 x i64> %5, %6
  ret <2 x i64> %7
}

; Function Attrs: alwaysinline nounwind uwtable
define internal <2 x i64> @_mm_srli_epi32(<2 x i64> noundef %0, i32 noundef %1) #3 {
  %3 = alloca <2 x i64>, align 16
  %4 = alloca i32, align 4
  store <2 x i64> %0, ptr %3, align 16, !tbaa !11
  store i32 %1, ptr %4, align 4, !tbaa !9
  %5 = load <2 x i64>, ptr %3, align 16, !tbaa !11
  %6 = bitcast <2 x i64> %5 to <4 x i32>
  %7 = load i32, ptr %4, align 4, !tbaa !9
  %8 = call <4 x i32> @llvm.x86.sse2.psrli.d(<4 x i32> %6, i32 %7)
  %9 = bitcast <4 x i32> %8 to <2 x i64>
  ret <2 x i64> %9
}

; Function Attrs: alwaysinline nounwind uwtable
define internal <2 x i64> @_mm_loadu_si128(ptr noundef %0) #3 {
  %2 = alloca ptr, align 8
  store ptr %0, ptr %2, align 8, !tbaa !3
  %3 = load ptr, ptr %2, align 8, !tbaa !3
  %4 = getelementptr inbounds nuw %struct.__loadu_si128, ptr %3, i32 0, i32 0
  %5 = load <2 x i64>, ptr %4, align 1, !tbaa !11
  ret <2 x i64> %5
}

; Function Attrs: alwaysinline nounwind uwtable
define internal <2 x i64> @_mm_set1_epi32(i32 noundef %0) #3 {
  %2 = alloca i32, align 4
  store i32 %0, ptr %2, align 4, !tbaa !9
  %3 = load i32, ptr %2, align 4, !tbaa !9
  %4 = load i32, ptr %2, align 4, !tbaa !9
  %5 = load i32, ptr %2, align 4, !tbaa !9
  %6 = load i32, ptr %2, align 4, !tbaa !9
  %7 = call <2 x i64> @_mm_set_epi32(i32 noundef %3, i32 noundef %4, i32 noundef %5, i32 noundef %6)
  ret <2 x i64> %7
}

; Function Attrs: nounwind uwtable
define internal void @ExtractGreen_SSE2(ptr noalias noundef %0, ptr noalias noundef %1, i32 noundef %2) #1 {
  %4 = alloca ptr, align 8
  %5 = alloca ptr, align 8
  %6 = alloca i32, align 4
  %7 = alloca i32, align 4
  %8 = alloca <2 x i64>, align 16
  %9 = alloca ptr, align 8
  %10 = alloca <2 x i64>, align 16
  %11 = alloca <2 x i64>, align 16
  %12 = alloca <2 x i64>, align 16
  %13 = alloca <2 x i64>, align 16
  %14 = alloca <2 x i64>, align 16
  %15 = alloca <2 x i64>, align 16
  %16 = alloca <2 x i64>, align 16
  %17 = alloca <2 x i64>, align 16
  %18 = alloca <2 x i64>, align 16
  %19 = alloca <2 x i64>, align 16
  %20 = alloca <2 x i64>, align 16
  %21 = alloca <2 x i64>, align 16
  %22 = alloca <2 x i64>, align 16
  %23 = alloca <2 x i64>, align 16
  %24 = alloca <2 x i64>, align 16
  %25 = alloca <2 x i64>, align 16
  %26 = alloca <2 x i64>, align 16
  %27 = alloca <2 x i64>, align 16
  %28 = alloca <2 x i64>, align 16
  %29 = alloca <2 x i64>, align 16
  %30 = alloca <2 x i64>, align 16
  %31 = alloca <2 x i64>, align 16
  %32 = alloca <2 x i64>, align 16
  store ptr %0, ptr %4, align 8, !tbaa !7
  store ptr %1, ptr %5, align 8, !tbaa !14
  store i32 %2, ptr %6, align 4, !tbaa !9
  call void @llvm.lifetime.start.p0(i64 4, ptr %7) #6
  call void @llvm.lifetime.start.p0(i64 16, ptr %8) #6
  %33 = call <2 x i64> @_mm_set1_epi32(i32 noundef 255)
  store <2 x i64> %33, ptr %8, align 16, !tbaa !11
  call void @llvm.lifetime.start.p0(i64 8, ptr %9) #6
  %34 = load ptr, ptr %4, align 8, !tbaa !7
  store ptr %34, ptr %9, align 8, !tbaa !3
  store i32 0, ptr %7, align 4, !tbaa !9
  br label %35

35:                                               ; preds = %87, %3
  %36 = load i32, ptr %7, align 4, !tbaa !9
  %37 = add nsw i32 %36, 16
  %38 = load i32, ptr %6, align 4, !tbaa !9
  %39 = icmp sle i32 %37, %38
  br i1 %39, label %40, label %92

40:                                               ; preds = %35
  call void @llvm.lifetime.start.p0(i64 16, ptr %10) #6
  %41 = load ptr, ptr %9, align 8, !tbaa !3
  %42 = getelementptr inbounds <2 x i64>, ptr %41, i64 0
  %43 = call <2 x i64> @_mm_loadu_si128(ptr noundef %42)
  store <2 x i64> %43, ptr %10, align 16, !tbaa !11
  call void @llvm.lifetime.start.p0(i64 16, ptr %11) #6
  %44 = load ptr, ptr %9, align 8, !tbaa !3
  %45 = getelementptr inbounds <2 x i64>, ptr %44, i64 1
  %46 = call <2 x i64> @_mm_loadu_si128(ptr noundef %45)
  store <2 x i64> %46, ptr %11, align 16, !tbaa !11
  call void @llvm.lifetime.start.p0(i64 16, ptr %12) #6
  %47 = load ptr, ptr %9, align 8, !tbaa !3
  %48 = getelementptr inbounds <2 x i64>, ptr %47, i64 2
  %49 = call <2 x i64> @_mm_loadu_si128(ptr noundef %48)
  store <2 x i64> %49, ptr %12, align 16, !tbaa !11
  call void @llvm.lifetime.start.p0(i64 16, ptr %13) #6
  %50 = load ptr, ptr %9, align 8, !tbaa !3
  %51 = getelementptr inbounds <2 x i64>, ptr %50, i64 3
  %52 = call <2 x i64> @_mm_loadu_si128(ptr noundef %51)
  store <2 x i64> %52, ptr %13, align 16, !tbaa !11
  call void @llvm.lifetime.start.p0(i64 16, ptr %14) #6
  %53 = load <2 x i64>, ptr %10, align 16, !tbaa !11
  %54 = call <2 x i64> @_mm_srli_epi32(<2 x i64> noundef %53, i32 noundef 8)
  store <2 x i64> %54, ptr %14, align 16, !tbaa !11
  call void @llvm.lifetime.start.p0(i64 16, ptr %15) #6
  %55 = load <2 x i64>, ptr %11, align 16, !tbaa !11
  %56 = call <2 x i64> @_mm_srli_epi32(<2 x i64> noundef %55, i32 noundef 8)
  store <2 x i64> %56, ptr %15, align 16, !tbaa !11
  call void @llvm.lifetime.start.p0(i64 16, ptr %16) #6
  %57 = load <2 x i64>, ptr %12, align 16, !tbaa !11
  %58 = call <2 x i64> @_mm_srli_epi32(<2 x i64> noundef %57, i32 noundef 8)
  store <2 x i64> %58, ptr %16, align 16, !tbaa !11
  call void @llvm.lifetime.start.p0(i64 16, ptr %17) #6
  %59 = load <2 x i64>, ptr %13, align 16, !tbaa !11
  %60 = call <2 x i64> @_mm_srli_epi32(<2 x i64> noundef %59, i32 noundef 8)
  store <2 x i64> %60, ptr %17, align 16, !tbaa !11
  call void @llvm.lifetime.start.p0(i64 16, ptr %18) #6
  %61 = load <2 x i64>, ptr %14, align 16, !tbaa !11
  %62 = load <2 x i64>, ptr %8, align 16, !tbaa !11
  %63 = call <2 x i64> @_mm_and_si128(<2 x i64> noundef %61, <2 x i64> noundef %62)
  store <2 x i64> %63, ptr %18, align 16, !tbaa !11
  call void @llvm.lifetime.start.p0(i64 16, ptr %19) #6
  %64 = load <2 x i64>, ptr %15, align 16, !tbaa !11
  %65 = load <2 x i64>, ptr %8, align 16, !tbaa !11
  %66 = call <2 x i64> @_mm_and_si128(<2 x i64> noundef %64, <2 x i64> noundef %65)
  store <2 x i64> %66, ptr %19, align 16, !tbaa !11
  call void @llvm.lifetime.start.p0(i64 16, ptr %20) #6
  %67 = load <2 x i64>, ptr %16, align 16, !tbaa !11
  %68 = load <2 x i64>, ptr %8, align 16, !tbaa !11
  %69 = call <2 x i64> @_mm_and_si128(<2 x i64> noundef %67, <2 x i64> noundef %68)
  store <2 x i64> %69, ptr %20, align 16, !tbaa !11
  call void @llvm.lifetime.start.p0(i64 16, ptr %21) #6
  %70 = load <2 x i64>, ptr %17, align 16, !tbaa !11
  %71 = load <2 x i64>, ptr %8, align 16, !tbaa !11
  %72 = call <2 x i64> @_mm_and_si128(<2 x i64> noundef %70, <2 x i64> noundef %71)
  store <2 x i64> %72, ptr %21, align 16, !tbaa !11
  call void @llvm.lifetime.start.p0(i64 16, ptr %22) #6
  %73 = load <2 x i64>, ptr %18, align 16, !tbaa !11
  %74 = load <2 x i64>, ptr %19, align 16, !tbaa !11
  %75 = call <2 x i64> @_mm_packs_epi32(<2 x i64> noundef %73, <2 x i64> noundef %74)
  store <2 x i64> %75, ptr %22, align 16, !tbaa !11
  call void @llvm.lifetime.start.p0(i64 16, ptr %23) #6
  %76 = load <2 x i64>, ptr %20, align 16, !tbaa !11
  %77 = load <2 x i64>, ptr %21, align 16, !tbaa !11
  %78 = call <2 x i64> @_mm_packs_epi32(<2 x i64> noundef %76, <2 x i64> noundef %77)
  store <2 x i64> %78, ptr %23, align 16, !tbaa !11
  call void @llvm.lifetime.start.p0(i64 16, ptr %24) #6
  %79 = load <2 x i64>, ptr %22, align 16, !tbaa !11
  %80 = load <2 x i64>, ptr %23, align 16, !tbaa !11
  %81 = call <2 x i64> @_mm_packus_epi16(<2 x i64> noundef %79, <2 x i64> noundef %80)
  store <2 x i64> %81, ptr %24, align 16, !tbaa !11
  %82 = load ptr, ptr %5, align 8, !tbaa !14
  %83 = load i32, ptr %7, align 4, !tbaa !9
  %84 = sext i32 %83 to i64
  %85 = getelementptr inbounds i8, ptr %82, i64 %84
  %86 = load <2 x i64>, ptr %24, align 16, !tbaa !11
  call void @_mm_storeu_si128(ptr noundef %85, <2 x i64> noundef %86)
  call void @llvm.lifetime.end.p0(i64 16, ptr %24) #6
  call void @llvm.lifetime.end.p0(i64 16, ptr %23) #6
  call void @llvm.lifetime.end.p0(i64 16, ptr %22) #6
  call void @llvm.lifetime.end.p0(i64 16, ptr %21) #6
  call void @llvm.lifetime.end.p0(i64 16, ptr %20) #6
  call void @llvm.lifetime.end.p0(i64 16, ptr %19) #6
  call void @llvm.lifetime.end.p0(i64 16, ptr %18) #6
  call void @llvm.lifetime.end.p0(i64 16, ptr %17) #6
  call void @llvm.lifetime.end.p0(i64 16, ptr %16) #6
  call void @llvm.lifetime.end.p0(i64 16, ptr %15) #6
  call void @llvm.lifetime.end.p0(i64 16, ptr %14) #6
  call void @llvm.lifetime.end.p0(i64 16, ptr %13) #6
  call void @llvm.lifetime.end.p0(i64 16, ptr %12) #6
  call void @llvm.lifetime.end.p0(i64 16, ptr %11) #6
  call void @llvm.lifetime.end.p0(i64 16, ptr %10) #6
  br label %87

87:                                               ; preds = %40
  %88 = load i32, ptr %7, align 4, !tbaa !9
  %89 = add nsw i32 %88, 16
  store i32 %89, ptr %7, align 4, !tbaa !9
  %90 = load ptr, ptr %9, align 8, !tbaa !3
  %91 = getelementptr inbounds <2 x i64>, ptr %90, i64 4
  store ptr %91, ptr %9, align 8, !tbaa !3
  br label %35, !llvm.loop !30

92:                                               ; preds = %35
  %93 = load i32, ptr %7, align 4, !tbaa !9
  %94 = add nsw i32 %93, 8
  %95 = load i32, ptr %6, align 4, !tbaa !9
  %96 = icmp sle i32 %94, %95
  br i1 %96, label %97, label %127

97:                                               ; preds = %92
  call void @llvm.lifetime.start.p0(i64 16, ptr %25) #6
  %98 = load ptr, ptr %9, align 8, !tbaa !3
  %99 = getelementptr inbounds <2 x i64>, ptr %98, i64 0
  %100 = call <2 x i64> @_mm_loadu_si128(ptr noundef %99)
  store <2 x i64> %100, ptr %25, align 16, !tbaa !11
  call void @llvm.lifetime.start.p0(i64 16, ptr %26) #6
  %101 = load ptr, ptr %9, align 8, !tbaa !3
  %102 = getelementptr inbounds <2 x i64>, ptr %101, i64 1
  %103 = call <2 x i64> @_mm_loadu_si128(ptr noundef %102)
  store <2 x i64> %103, ptr %26, align 16, !tbaa !11
  call void @llvm.lifetime.start.p0(i64 16, ptr %27) #6
  %104 = load <2 x i64>, ptr %25, align 16, !tbaa !11
  %105 = call <2 x i64> @_mm_srli_epi32(<2 x i64> noundef %104, i32 noundef 8)
  store <2 x i64> %105, ptr %27, align 16, !tbaa !11
  call void @llvm.lifetime.start.p0(i64 16, ptr %28) #6
  %106 = load <2 x i64>, ptr %26, align 16, !tbaa !11
  %107 = call <2 x i64> @_mm_srli_epi32(<2 x i64> noundef %106, i32 noundef 8)
  store <2 x i64> %107, ptr %28, align 16, !tbaa !11
  call void @llvm.lifetime.start.p0(i64 16, ptr %29) #6
  %108 = load <2 x i64>, ptr %27, align 16, !tbaa !11
  %109 = load <2 x i64>, ptr %8, align 16, !tbaa !11
  %110 = call <2 x i64> @_mm_and_si128(<2 x i64> noundef %108, <2 x i64> noundef %109)
  store <2 x i64> %110, ptr %29, align 16, !tbaa !11
  call void @llvm.lifetime.start.p0(i64 16, ptr %30) #6
  %111 = load <2 x i64>, ptr %28, align 16, !tbaa !11
  %112 = load <2 x i64>, ptr %8, align 16, !tbaa !11
  %113 = call <2 x i64> @_mm_and_si128(<2 x i64> noundef %111, <2 x i64> noundef %112)
  store <2 x i64> %113, ptr %30, align 16, !tbaa !11
  call void @llvm.lifetime.start.p0(i64 16, ptr %31) #6
  %114 = load <2 x i64>, ptr %29, align 16, !tbaa !11
  %115 = load <2 x i64>, ptr %30, align 16, !tbaa !11
  %116 = call <2 x i64> @_mm_packs_epi32(<2 x i64> noundef %114, <2 x i64> noundef %115)
  store <2 x i64> %116, ptr %31, align 16, !tbaa !11
  call void @llvm.lifetime.start.p0(i64 16, ptr %32) #6
  %117 = load <2 x i64>, ptr %31, align 16, !tbaa !11
  %118 = load <2 x i64>, ptr %31, align 16, !tbaa !11
  %119 = call <2 x i64> @_mm_packus_epi16(<2 x i64> noundef %117, <2 x i64> noundef %118)
  store <2 x i64> %119, ptr %32, align 16, !tbaa !11
  %120 = load ptr, ptr %5, align 8, !tbaa !14
  %121 = load i32, ptr %7, align 4, !tbaa !9
  %122 = sext i32 %121 to i64
  %123 = getelementptr inbounds i8, ptr %120, i64 %122
  %124 = load <2 x i64>, ptr %32, align 16, !tbaa !11
  call void @_mm_storel_epi64(ptr noundef %123, <2 x i64> noundef %124)
  %125 = load i32, ptr %7, align 4, !tbaa !9
  %126 = add nsw i32 %125, 8
  store i32 %126, ptr %7, align 4, !tbaa !9
  call void @llvm.lifetime.end.p0(i64 16, ptr %32) #6
  call void @llvm.lifetime.end.p0(i64 16, ptr %31) #6
  call void @llvm.lifetime.end.p0(i64 16, ptr %30) #6
  call void @llvm.lifetime.end.p0(i64 16, ptr %29) #6
  call void @llvm.lifetime.end.p0(i64 16, ptr %28) #6
  call void @llvm.lifetime.end.p0(i64 16, ptr %27) #6
  call void @llvm.lifetime.end.p0(i64 16, ptr %26) #6
  call void @llvm.lifetime.end.p0(i64 16, ptr %25) #6
  br label %127

127:                                              ; preds = %97, %92
  br label %128

128:                                              ; preds = %144, %127
  %129 = load i32, ptr %7, align 4, !tbaa !9
  %130 = load i32, ptr %6, align 4, !tbaa !9
  %131 = icmp slt i32 %129, %130
  br i1 %131, label %132, label %147

132:                                              ; preds = %128
  %133 = load ptr, ptr %4, align 8, !tbaa !7
  %134 = load i32, ptr %7, align 4, !tbaa !9
  %135 = sext i32 %134 to i64
  %136 = getelementptr inbounds i32, ptr %133, i64 %135
  %137 = load i32, ptr %136, align 4, !tbaa !9
  %138 = lshr i32 %137, 8
  %139 = trunc i32 %138 to i8
  %140 = load ptr, ptr %5, align 8, !tbaa !14
  %141 = load i32, ptr %7, align 4, !tbaa !9
  %142 = sext i32 %141 to i64
  %143 = getelementptr inbounds i8, ptr %140, i64 %142
  store i8 %139, ptr %143, align 1, !tbaa !11
  br label %144

144:                                              ; preds = %132
  %145 = load i32, ptr %7, align 4, !tbaa !9
  %146 = add nsw i32 %145, 1
  store i32 %146, ptr %7, align 4, !tbaa !9
  br label %128, !llvm.loop !31

147:                                              ; preds = %128
  call void @llvm.lifetime.end.p0(i64 8, ptr %9) #6
  call void @llvm.lifetime.end.p0(i64 16, ptr %8) #6
  call void @llvm.lifetime.end.p0(i64 4, ptr %7) #6
  ret void
}