; Function Attrs: nofree norecurse nosync nounwind memory(argmem: readwrite) uwtable
define internal void @ExtractGreen_SSE2(ptr noalias noundef readonly captures(none) %0, ptr noalias noundef writeonly captures(none) %1, i32 noundef %2) #2 {
  %.not59 = icmp slt i32 %2, 16
  br i1 %.not59, label %._crit_edge, label %.lr.ph.preheader

.lr.ph.preheader:                                 ; preds = %3
  %4 = zext nneg i32 %2 to i64
  br label %.lr.ph

.lr.ph:                                           ; preds = %.lr.ph.preheader, %.lr.ph
  %indvars.iv68 = phi i64 [ 0, %.lr.ph.preheader ], [ %indvars.iv.next69, %.lr.ph ]
  %indvars.iv = phi i64 [ 16, %.lr.ph.preheader ], [ %indvars.iv.next, %.lr.ph ]
  %.05460 = phi ptr [ %0, %.lr.ph.preheader ], [ %24, %.lr.ph ]
  %5 = load <4 x i32>, ptr %.05460, align 1, !tbaa !7
  %6 = getelementptr inbounds nuw i8, ptr %.05460, i64 16
  %7 = load <4 x i32>, ptr %6, align 1, !tbaa !7
  %8 = getelementptr inbounds nuw i8, ptr %.05460, i64 32
  %9 = load <4 x i32>, ptr %8, align 1, !tbaa !7
  %10 = getelementptr inbounds nuw i8, ptr %.05460, i64 48
  %11 = load <4 x i32>, ptr %10, align 1, !tbaa !7
  %12 = lshr <4 x i32> %5, splat (i32 8)
  %13 = lshr <4 x i32> %7, splat (i32 8)
  %14 = lshr <4 x i32> %9, splat (i32 8)
  %15 = lshr <4 x i32> %11, splat (i32 8)
  %16 = and <4 x i32> %12, splat (i32 255)
  %17 = and <4 x i32> %13, splat (i32 255)
  %18 = tail call <8 x i16> @llvm.x86.sse2.packssdw.128(<4 x i32> %16, <4 x i32> %17)
  %19 = and <4 x i32> %14, splat (i32 255)
  %20 = and <4 x i32> %15, splat (i32 255)
  %21 = tail call <8 x i16> @llvm.x86.sse2.packssdw.128(<4 x i32> %19, <4 x i32> %20)
  %22 = tail call <16 x i8> @llvm.x86.sse2.packuswb.128(<8 x i16> %18, <8 x i16> %21)
  %23 = getelementptr inbounds nuw i8, ptr %1, i64 %indvars.iv68
  store <16 x i8> %22, ptr %23, align 1, !tbaa !7
  %24 = getelementptr inbounds nuw i8, ptr %.05460, i64 64
  %indvars.iv.next = add nuw nsw i64 %indvars.iv, 16
  %.not = icmp samesign ugt i64 %indvars.iv.next, %4
  %indvars.iv.next69 = add nuw nsw i64 %indvars.iv68, 16
  br i1 %.not, label %._crit_edge.loopexit, label %.lr.ph, !llvm.loop !26

._crit_edge.loopexit:                             ; preds = %.lr.ph
  %25 = trunc nuw nsw i64 %indvars.iv to i32
  br label %._crit_edge

._crit_edge:                                      ; preds = %._crit_edge.loopexit, %3
  %.054.lcssa = phi ptr [ %0, %3 ], [ %24, %._crit_edge.loopexit ]
  %.0.lcssa = phi i32 [ 0, %3 ], [ %25, %._crit_edge.loopexit ]
  %26 = or disjoint i32 %.0.lcssa, 8
  %.not58 = icmp sgt i32 %26, %2
  br i1 %.not58, label %41, label %27

27:                                               ; preds = %._crit_edge
  %28 = load <4 x i32>, ptr %.054.lcssa, align 1, !tbaa !7
  %29 = getelementptr inbounds nuw i8, ptr %.054.lcssa, i64 16
  %30 = load <4 x i32>, ptr %29, align 1, !tbaa !7
  %31 = lshr <4 x i32> %28, splat (i32 8)
  %32 = lshr <4 x i32> %30, splat (i32 8)
  %33 = and <4 x i32> %31, splat (i32 255)
  %34 = and <4 x i32> %32, splat (i32 255)
  %35 = tail call <8 x i16> @llvm.x86.sse2.packssdw.128(<4 x i32> %33, <4 x i32> %34)
  %36 = tail call <16 x i8> @llvm.x86.sse2.packuswb.128(<8 x i16> %35, <8 x i16> poison)
  %37 = bitcast <16 x i8> %36 to <2 x i64>
  %38 = zext nneg i32 %.0.lcssa to i64
  %39 = getelementptr inbounds nuw i8, ptr %1, i64 %38
  %40 = extractelement <2 x i64> %37, i64 0
  store i64 %40, ptr %39, align 1, !tbaa !7
  br label %41

41:                                               ; preds = %27, %._crit_edge
  %.1 = phi i32 [ %26, %27 ], [ %.0.lcssa, %._crit_edge ]
  %42 = icmp slt i32 %.1, %2
  br i1 %42, label %.lr.ph65.preheader, label %._crit_edge66

.lr.ph65.preheader:                               ; preds = %41
  %43 = zext nneg i32 %.1 to i64
  %wide.trip.count = zext i32 %2 to i64
  br label %.lr.ph65

.lr.ph65:                                         ; preds = %.lr.ph65.preheader, %.lr.ph65
  %indvars.iv73 = phi i64 [ %43, %.lr.ph65.preheader ], [ %indvars.iv.next74, %.lr.ph65 ]
  %44 = getelementptr inbounds nuw i32, ptr %0, i64 %indvars.iv73
  %45 = load i32, ptr %44, align 4, !tbaa !19
  %46 = lshr i32 %45, 8
  %47 = trunc i32 %46 to i8
  %48 = getelementptr inbounds nuw i8, ptr %1, i64 %indvars.iv73
  store i8 %47, ptr %48, align 1, !tbaa !7
  %indvars.iv.next74 = add nuw nsw i64 %indvars.iv73, 1
  %exitcond.not = icmp eq i64 %indvars.iv.next74, %wide.trip.count
  br i1 %exitcond.not, label %._crit_edge66, label %.lr.ph65, !llvm.loop !27

._crit_edge66:                                    ; preds = %.lr.ph65, %41
  ret void
}